; ModuleID = '24/825.c'
source_filename = "24/825.c"
target datalayout = "e-m:e-p270:32:32-p271:32:32-p272:64:64-i64:64-f80:128-n8:16:32:64-S128"
target triple = "x86_64-pc-linux-gnu"

@.str = private unnamed_addr constant [3 x i8] c"%c\00", align 1
@.str.1 = private unnamed_addr constant [2 x i8] c"\0A\00", align 1

; Function Attrs: noinline nounwind uwtable
define dso_local i32 @main() #0 {
  %1 = alloca i32, align 4
  %2 = alloca [1000 x i8], align 16
  %3 = alloca i32, align 4
  %4 = alloca i32, align 4
  %5 = alloca i32, align 4
  %6 = alloca i32, align 4
  %7 = alloca i32, align 4
  %8 = alloca i32, align 4
  %9 = alloca i32, align 4
  %10 = alloca i32, align 4
  store i32 0, i32* %1, align 4
  %11 = getelementptr inbounds [1000 x i8], [1000 x i8]* %2, i64 0, i64 0
  %12 = call i32 (i8*, ...) bitcast (i32 (...)* @gets to i32 (i8*, ...)*)(i8* %11)
  store i32 0, i32* %4, align 4
  store i32 0, i32* %5, align 4
  store i32 0, i32* %6, align 4
  store i32 0, i32* %7, align 4
  store i32 100, i32* %8, align 4
  store i32 0, i32* %9, align 4
  br label %13

13:                                               ; preds = %107, %0
  %14 = load i32, i32* %4, align 4
  %15 = sext i32 %14 to i64
  %16 = getelementptr inbounds [1000 x i8], [1000 x i8]* %2, i64 0, i64 %15
  %17 = load i8, i8* %16, align 1
  %18 = sext i8 %17 to i32
  %19 = icmp ne i32 %18, 0
  br i1 %19, label %20, label %108

20:                                               ; preds = %13
  store i32 0, i32* %10, align 4
  %21 = load i32, i32* %4, align 4
  %22 = sext i32 %21 to i64
  %23 = getelementptr inbounds [1000 x i8], [1000 x i8]* %2, i64 0, i64 %22
  %24 = load i8, i8* %23, align 1
  %25 = sext i8 %24 to i32
  %26 = icmp sge i32 %25, 97
  br i1 %26, label %27, label %34

27:                                               ; preds = %20
  %28 = load i32, i32* %4, align 4
  %29 = sext i32 %28 to i64
  %30 = getelementptr inbounds [1000 x i8], [1000 x i8]* %2, i64 0, i64 %29
  %31 = load i8, i8* %30, align 1
  %32 = sext i8 %31 to i32
  %33 = icmp sle i32 %32, 122
  br i1 %33, label %48, label %34

34:                                               ; preds = %27, %20
  %35 = load i32, i32* %4, align 4
  %36 = sext i32 %35 to i64
  %37 = getelementptr inbounds [1000 x i8], [1000 x i8]* %2, i64 0, i64 %36
  %38 = load i8, i8* %37, align 1
  %39 = sext i8 %38 to i32
  %40 = icmp sge i32 %39, 65
  br i1 %40, label %41, label %104

41:                                               ; preds = %34
  %42 = load i32, i32* %4, align 4
  %43 = sext i32 %42 to i64
  %44 = getelementptr inbounds [1000 x i8], [1000 x i8]* %2, i64 0, i64 %43
  %45 = load i8, i8* %44, align 1
  %46 = sext i8 %45 to i32
  %47 = icmp sle i32 %46, 90
  br i1 %47, label %48, label %104

48:                                               ; preds = %41, %27
  %49 = load i32, i32* %4, align 4
  store i32 %49, i32* %3, align 4
  %50 = load i32, i32* %6, align 4
  %51 = add nsw i32 %50, 1
  store i32 %51, i32* %6, align 4
  br label %52

52:                                               ; preds = %84, %48
  %53 = load i32, i32* %4, align 4
  %54 = sext i32 %53 to i64
  %55 = getelementptr inbounds [1000 x i8], [1000 x i8]* %2, i64 0, i64 %54
  %56 = load i8, i8* %55, align 1
  %57 = sext i8 %56 to i32
  %58 = icmp sge i32 %57, 97
  br i1 %58, label %59, label %66

59:                                               ; preds = %52
  %60 = load i32, i32* %4, align 4
  %61 = sext i32 %60 to i64
  %62 = getelementptr inbounds [1000 x i8], [1000 x i8]* %2, i64 0, i64 %61
  %63 = load i8, i8* %62, align 1
  %64 = sext i8 %63 to i32
  %65 = icmp sle i32 %64, 122
  br i1 %65, label %82, label %66

66:                                               ; preds = %59, %52
  %67 = load i32, i32* %4, align 4
  %68 = sext i32 %67 to i64
  %69 = getelementptr inbounds [1000 x i8], [1000 x i8]* %2, i64 0, i64 %68
  %70 = load i8, i8* %69, align 1
  %71 = sext i8 %70 to i32
  %72 = icmp sge i32 %71, 65
  br i1 %72, label %73, label %80

73:                                               ; preds = %66
  %74 = load i32, i32* %4, align 4
  %75 = sext i32 %74 to i64
  %76 = getelementptr inbounds [1000 x i8], [1000 x i8]* %2, i64 0, i64 %75
  %77 = load i8, i8* %76, align 1
  %78 = sext i8 %77 to i32
  %79 = icmp sle i32 %78, 90
  br label %80

80:                                               ; preds = %73, %66
  %81 = phi i1 [ false, %66 ], [ %79, %73 ]
  br label %82

82:                                               ; preds = %80, %59
  %83 = phi i1 [ true, %59 ], [ %81, %80 ]
  br i1 %83, label %84, label %89

84:                                               ; preds = %82
  %85 = load i32, i32* %10, align 4
  %86 = add nsw i32 %85, 1
  store i32 %86, i32* %10, align 4
  %87 = load i32, i32* %4, align 4
  %88 = add nsw i32 %87, 1
  store i32 %88, i32* %4, align 4
  br label %52

89:                                               ; preds = %82
  %90 = load i32, i32* %10, align 4
  %91 = load i32, i32* %7, align 4
  %92 = icmp sgt i32 %90, %91
  br i1 %92, label %93, label %96

93:                                               ; preds = %89
  %94 = load i32, i32* %3, align 4
  store i32 %94, i32* %5, align 4
  %95 = load i32, i32* %10, align 4
  store i32 %95, i32* %7, align 4
  br label %96

96:                                               ; preds = %93, %89
  %97 = load i32, i32* %10, align 4
  %98 = load i32, i32* %8, align 4
  %99 = icmp slt i32 %97, %98
  br i1 %99, label %100, label %103

100:                                              ; preds = %96
  %101 = load i32, i32* %3, align 4
  store i32 %101, i32* %9, align 4
  %102 = load i32, i32* %10, align 4
  store i32 %102, i32* %8, align 4
  br label %103

103:                                              ; preds = %100, %96
  br label %107

104:                                              ; preds = %41, %34
  %105 = load i32, i32* %4, align 4
  %106 = add nsw i32 %105, 1
  store i32 %106, i32* %4, align 4
  br label %107

107:                                              ; preds = %104, %103
  br label %13

108:                                              ; preds = %13
  %109 = load i32, i32* %5, align 4
  store i32 %109, i32* %4, align 4
  br label %110

110:                                              ; preds = %142, %108
  %111 = load i32, i32* %4, align 4
  %112 = sext i32 %111 to i64
  %113 = getelementptr inbounds [1000 x i8], [1000 x i8]* %2, i64 0, i64 %112
  %114 = load i8, i8* %113, align 1
  %115 = sext i8 %114 to i32
  %116 = icmp sge i32 %115, 97
  br i1 %116, label %117, label %124

117:                                              ; preds = %110
  %118 = load i32, i32* %4, align 4
  %119 = sext i32 %118 to i64
  %120 = getelementptr inbounds [1000 x i8], [1000 x i8]* %2, i64 0, i64 %119
  %121 = load i8, i8* %120, align 1
  %122 = sext i8 %121 to i32
  %123 = icmp sle i32 %122, 122
  br i1 %123, label %140, label %124

124:                                              ; preds = %117, %110
  %125 = load i32, i32* %4, align 4
  %126 = sext i32 %125 to i64
  %127 = getelementptr inbounds [1000 x i8], [1000 x i8]* %2, i64 0, i64 %126
  %128 = load i8, i8* %127, align 1
  %129 = sext i8 %128 to i32
  %130 = icmp sge i32 %129, 65
  br i1 %130, label %131, label %138

131:                                              ; preds = %124
  %132 = load i32, i32* %4, align 4
  %133 = sext i32 %132 to i64
  %134 = getelementptr inbounds [1000 x i8], [1000 x i8]* %2, i64 0, i64 %133
  %135 = load i8, i8* %134, align 1
  %136 = sext i8 %135 to i32
  %137 = icmp sle i32 %136, 90
  br label %138

138:                                              ; preds = %131, %124
  %139 = phi i1 [ false, %124 ], [ %137, %131 ]
  br label %140

140:                                              ; preds = %138, %117
  %141 = phi i1 [ true, %117 ], [ %139, %138 ]
  br i1 %141, label %142, label %151

142:                                              ; preds = %140
  %143 = load i32, i32* %4, align 4
  %144 = sext i32 %143 to i64
  %145 = getelementptr inbounds [1000 x i8], [1000 x i8]* %2, i64 0, i64 %144
  %146 = load i8, i8* %145, align 1
  %147 = sext i8 %146 to i32
  %148 = call i32 (i8*, ...) @printf(i8* getelementptr inbounds ([3 x i8], [3 x i8]* @.str, i64 0, i64 0), i32 %147)
  %149 = load i32, i32* %4, align 4
  %150 = add nsw i32 %149, 1
  store i32 %150, i32* %4, align 4
  br label %110

151:                                              ; preds = %140
  %152 = call i32 (i8*, ...) @printf(i8* getelementptr inbounds ([2 x i8], [2 x i8]* @.str.1, i64 0, i64 0))
  %153 = load i32, i32* %9, align 4
  store i32 %153, i32* %4, align 4
  br label %154

154:                                              ; preds = %186, %151
  %155 = load i32, i32* %4, align 4
  %156 = sext i32 %155 to i64
  %157 = getelementptr inbounds [1000 x i8], [1000 x i8]* %2, i64 0, i64 %156
  %158 = load i8, i8* %157, align 1
  %159 = sext i8 %158 to i32
  %160 = icmp sge i32 %159, 97
  br i1 %160, label %161, label %168

161:                                              ; preds = %154
  %162 = load i32, i32* %4, align 4
  %163 = sext i32 %162 to i64
  %164 = getelementptr inbounds [1000 x i8], [1000 x i8]* %2, i64 0, i64 %163
  %165 = load i8, i8* %164, align 1
  %166 = sext i8 %165 to i32
  %167 = icmp sle i32 %166, 122
  br i1 %167, label %184, label %168

168:                                              ; preds = %161, %154
  %169 = load i32, i32* %4, align 4
  %170 = sext i32 %169 to i64
  %171 = getelementptr inbounds [1000 x i8], [1000 x i8]* %2, i64 0, i64 %170
  %172 = load i8, i8* %171, align 1
  %173 = sext i8 %172 to i32
  %174 = icmp sge i32 %173, 65
  br i1 %174, label %175, label %182

175:                                              ; preds = %168
  %176 = load i32, i32* %4, align 4
  %177 = sext i32 %176 to i64
  %178 = getelementptr inbounds [1000 x i8], [1000 x i8]* %2, i64 0, i64 %177
  %179 = load i8, i8* %178, align 1
  %180 = sext i8 %179 to i32
  %181 = icmp sle i32 %180, 90
  br label %182

182:                                              ; preds = %175, %168
  %183 = phi i1 [ false, %168 ], [ %181, %175 ]
  br label %184

184:                                              ; preds = %182, %161
  %185 = phi i1 [ true, %161 ], [ %183, %182 ]
  br i1 %185, label %186, label %195

186:                                              ; preds = %184
  %187 = load i32, i32* %4, align 4
  %188 = sext i32 %187 to i64
  %189 = getelementptr inbounds [1000 x i8], [1000 x i8]* %2, i64 0, i64 %188
  %190 = load i8, i8* %189, align 1
  %191 = sext i8 %190 to i32
  %192 = call i32 (i8*, ...) @printf(i8* getelementptr inbounds ([3 x i8], [3 x i8]* @.str, i64 0, i64 0), i32 %191)
  %193 = load i32, i32* %4, align 4
  %194 = add nsw i32 %193, 1
  store i32 %194, i32* %4, align 4
  br label %154

195:                                              ; preds = %184
  ret i32 0
}

declare dso_local i32 @gets(...) #1

declare dso_local i32 @printf(i8*, ...) #1


!llvm.module.flags = !{!0}
!llvm.ident = !{!1}

!0 = !{i32 1, !"wchar_size", i32 4}
!1 = !{!"clang version 10.0.0-4ubuntu1 "}
